target datalayout = "e-m:e-p270:32:32-p271:32:32-p272:64:64-i64:64-i128:128-f80:128-n8:16:32:64-S128"
target triple = "x86_64-pc-linux-gnu"

%struct.archive_string = type { ptr, i64, i64 }
%struct.tree = type { ptr, ptr, ptr, ptr, i32, i32, i32, %struct.archive_string, ptr, i64, i32, i32, i32, i32, i32, %struct.stat, %struct.stat, i32, i32, %struct.restore_time, ptr, ptr, i32, i32, i8, i8, ptr, ptr, i32, i32, i32, i32, i32, i32, i64, i64, ptr, i64 }
%struct.stat = type { i64, i64, i64, i32, i32, i32, i32, i64, i64, i64, i64, %struct.timespec, %struct.timespec, %struct.timespec, [3 x i64] }
%struct.timespec = type { i64, i64 }
%struct.restore_time = type { ptr, i64, i64, i64, i64, i32, i32 }

; Function Attrs: nounwind uwtable
define internal i32 @tree_enter_working_dir(ptr noundef %0) #0 {
  %2 = alloca ptr, align 8
  %3 = alloca i32, align 4
  store ptr %0, ptr %2, align 8
  store i32 0, ptr %3, align 4
  %4 = load ptr, ptr %2, align 8
  %5 = getelementptr inbounds %struct.tree, ptr %4, i32 0, i32 10
  %6 = load i32, ptr %5, align 8
  %7 = icmp sgt i32 %6, 0
  br i1 %7, label %8, label %31

8:                                                ; preds = %1
  %9 = load ptr, ptr %2, align 8
  %10 = getelementptr inbounds %struct.tree, ptr %9, i32 0, i32 4
  %11 = load i32, ptr %10, align 8
  %12 = and i32 %11, 64
  %13 = icmp eq i32 %12, 0
  br i1 %13, label %14, label %31

14:                                               ; preds = %8
  %15 = load ptr, ptr %2, align 8
  %16 = getelementptr inbounds %struct.tree, ptr %15, i32 0, i32 14
  %17 = load i32, ptr %16, align 8
  %18 = call i32 @fchdir(i32 noundef %17) #10
  store i32 %18, ptr %3, align 4
  %19 = load i32, ptr %3, align 4
  %20 = icmp eq i32 %19, 0
  br i1 %20, label %21, label %30

21:                                               ; preds = %14
  %22 = load ptr, ptr %2, align 8
  %23 = getelementptr inbounds %struct.tree, ptr %22, i32 0, i32 4
  %24 = load i32, ptr %23, align 8
  %25 = and i32 %24, -257
  store i32 %25, ptr %23, align 8
  %26 = load ptr, ptr %2, align 8
  %27 = getelementptr inbounds %struct.tree, ptr %26, i32 0, i32 4
  %28 = load i32, ptr %27, align 8
  %29 = or i32 %28, 64
  store i32 %29, ptr %27, align 8
  br label %30

30:                                               ; preds = %21, %14
  br label %31

31:                                               ; preds = %30, %8, %1
  %32 = load i32, ptr %3, align 4
  ret i32 %32
}