; Function Attrs: nounwind uwtable
define internal i32 @tree_enter_working_dir(ptr noundef captures(none) %0) #0 {
  %2 = getelementptr inbounds nuw i8, ptr %0, i64 88
  %3 = load i32, ptr %2, align 8
  %4 = icmp sgt i32 %3, 0
  br i1 %4, label %5, label %19

5:                                                ; preds = %1
  %6 = getelementptr inbounds nuw i8, ptr %0, i64 32
  %7 = load i32, ptr %6, align 8
  %8 = and i32 %7, 64
  %9 = icmp eq i32 %8, 0
  br i1 %9, label %10, label %19

10:                                               ; preds = %5
  %11 = getelementptr inbounds nuw i8, ptr %0, i64 104
  %12 = load i32, ptr %11, align 8
  %13 = tail call i32 @fchdir(i32 noundef %12) #17
  %14 = icmp eq i32 %13, 0
  br i1 %14, label %15, label %19

15:                                               ; preds = %10
  %16 = load i32, ptr %6, align 8
  %17 = and i32 %16, -321
  %18 = or disjoint i32 %17, 64
  store i32 %18, ptr %6, align 8
  br label %19

19:                                               ; preds = %10, %15, %5, %1
  %.0 = phi i32 [ 0, %15 ], [ %13, %10 ], [ 0, %5 ], [ 0, %1 ]
  ret i32 %.0
}